target datalayout = "e-m:e-p270:32:32-p271:32:32-p272:64:64-i64:64-i128:128-f80:128-n8:16:32:64-S128"
target triple = "x86_64-pc-linux-gnu"

%struct.tr2tls_thread_ctx = type { ptr, ptr, i64, i64, i32, %struct.tr2_timer_block, %struct.tr2_counter_block, i8 }
%struct.tr2_timer_block = type { [2 x %struct.tr2_timer] }
%struct.tr2_timer = type { i64, i64, i64, i64, i64, i32 }
%struct.tr2_counter_block = type { [6 x %struct.tr2_counter] }
%struct.tr2_counter = type { i64 }

@tr2tls_key = internal global i32 0, align 4
@.str.1 = private unnamed_addr constant [8 x i8] c"unknown\00", align 1
@.str.7 = private unnamed_addr constant [27 x i8] c"size_t overflow: %lu * %lu\00", align 1

; Function Attrs: inlinehint nounwind uwtable
define internal i64 @st_mult(i64 noundef %0, i64 noundef %1) #4 {
  %3 = alloca i64, align 8
  %4 = alloca i64, align 8
  store i64 %0, ptr %3, align 8, !tbaa !4
  store i64 %1, ptr %4, align 8, !tbaa !4
  %5 = load i64, ptr %3, align 8, !tbaa !4
  %6 = icmp ne i64 %5, 0
  br i1 %6, label %7, label %15

7:                                                ; preds = %2
  %8 = load i64, ptr %4, align 8, !tbaa !4
  %9 = load i64, ptr %3, align 8, !tbaa !4
  %10 = udiv i64 -1, %9
  %11 = icmp ugt i64 %8, %10
  br i1 %11, label %12, label %15

12:                                               ; preds = %7
  %13 = load i64, ptr %3, align 8, !tbaa !4
  %14 = load i64, ptr %4, align 8, !tbaa !4
  call void (ptr, ...) @die(ptr noundef @.str.7, i64 noundef %13, i64 noundef %14) #10
  unreachable

15:                                               ; preds = %7, %2
  %16 = load i64, ptr %3, align 8, !tbaa !4
  %17 = load i64, ptr %4, align 8, !tbaa !4
  %18 = mul i64 %16, %17
  ret i64 %18
}

; Function Attrs: nounwind uwtable
define dso_local ptr @tr2tls_get_self() #0 {
  %1 = alloca ptr, align 8
  call void @llvm.lifetime.start.p0(i64 8, ptr %1) #8
  %2 = load i32, ptr @tr2tls_key, align 4, !tbaa !25
  %3 = call ptr @pthread_getspecific(i32 noundef %2) #8
  store ptr %3, ptr %1, align 8, !tbaa !11
  %4 = load ptr, ptr %1, align 8, !tbaa !11
  %5 = icmp ne ptr %4, null
  br i1 %5, label %10, label %6

6:                                                ; preds = %0
  %7 = call i64 @getnanotime()
  %8 = udiv i64 %7, 1000
  %9 = call ptr @tr2tls_create_self(ptr noundef @.str.1, i64 noundef %8)
  store ptr %9, ptr %1, align 8, !tbaa !11
  br label %10

10:                                               ; preds = %6, %0
  %11 = load ptr, ptr %1, align 8, !tbaa !11
  call void @llvm.lifetime.end.p0(i64 8, ptr %1) #8
  ret ptr %11
}

; Function Attrs: nounwind uwtable
define dso_local void @tr2tls_push_self(i64 noundef %0) #0 {
  %2 = alloca i64, align 8
  %3 = alloca ptr, align 8
  store i64 %0, ptr %2, align 8, !tbaa !4
  call void @llvm.lifetime.start.p0(i64 8, ptr %3) #8
  %4 = call ptr @tr2tls_get_self()
  store ptr %4, ptr %3, align 8, !tbaa !11
  br label %5

5:                                                ; preds = %1
  %6 = load ptr, ptr %3, align 8, !tbaa !11
  %7 = getelementptr inbounds nuw %struct.tr2tls_thread_ctx, ptr %6, i32 0, i32 3
  %8 = load i64, ptr %7, align 8, !tbaa !20
  %9 = add i64 %8, 1
  %10 = load ptr, ptr %3, align 8, !tbaa !11
  %11 = getelementptr inbounds nuw %struct.tr2tls_thread_ctx, ptr %10, i32 0, i32 2
  %12 = load i64, ptr %11, align 8, !tbaa !13
  %13 = icmp ugt i64 %9, %12
  br i1 %13, label %14, label %53

14:                                               ; preds = %5
  %15 = load ptr, ptr %3, align 8, !tbaa !11
  %16 = getelementptr inbounds nuw %struct.tr2tls_thread_ctx, ptr %15, i32 0, i32 2
  %17 = load i64, ptr %16, align 8, !tbaa !13
  %18 = add i64 %17, 16
  %19 = mul i64 %18, 3
  %20 = udiv i64 %19, 2
  %21 = load ptr, ptr %3, align 8, !tbaa !11
  %22 = getelementptr inbounds nuw %struct.tr2tls_thread_ctx, ptr %21, i32 0, i32 3
  %23 = load i64, ptr %22, align 8, !tbaa !20
  %24 = add i64 %23, 1
  %25 = icmp ult i64 %20, %24
  br i1 %25, label %26, label %33

26:                                               ; preds = %14
  %27 = load ptr, ptr %3, align 8, !tbaa !11
  %28 = getelementptr inbounds nuw %struct.tr2tls_thread_ctx, ptr %27, i32 0, i32 3
  %29 = load i64, ptr %28, align 8, !tbaa !20
  %30 = add i64 %29, 1
  %31 = load ptr, ptr %3, align 8, !tbaa !11
  %32 = getelementptr inbounds nuw %struct.tr2tls_thread_ctx, ptr %31, i32 0, i32 2
  store i64 %30, ptr %32, align 8, !tbaa !13
  br label %42

33:                                               ; preds = %14
  %34 = load ptr, ptr %3, align 8, !tbaa !11
  %35 = getelementptr inbounds nuw %struct.tr2tls_thread_ctx, ptr %34, i32 0, i32 2
  %36 = load i64, ptr %35, align 8, !tbaa !13
  %37 = add i64 %36, 16
  %38 = mul i64 %37, 3
  %39 = udiv i64 %38, 2
  %40 = load ptr, ptr %3, align 8, !tbaa !11
  %41 = getelementptr inbounds nuw %struct.tr2tls_thread_ctx, ptr %40, i32 0, i32 2
  store i64 %39, ptr %41, align 8, !tbaa !13
  br label %42

42:                                               ; preds = %33, %26
  %43 = load ptr, ptr %3, align 8, !tbaa !11
  %44 = getelementptr inbounds nuw %struct.tr2tls_thread_ctx, ptr %43, i32 0, i32 1
  %45 = load ptr, ptr %44, align 8, !tbaa !19
  %46 = load ptr, ptr %3, align 8, !tbaa !11
  %47 = getelementptr inbounds nuw %struct.tr2tls_thread_ctx, ptr %46, i32 0, i32 2
  %48 = load i64, ptr %47, align 8, !tbaa !13
  %49 = call i64 @st_mult(i64 noundef 8, i64 noundef %48)
  %50 = call ptr @xrealloc(ptr noundef %45, i64 noundef %49)
  %51 = load ptr, ptr %3, align 8, !tbaa !11
  %52 = getelementptr inbounds nuw %struct.tr2tls_thread_ctx, ptr %51, i32 0, i32 1
  store ptr %50, ptr %52, align 8, !tbaa !19
  br label %53

53:                                               ; preds = %42, %5
  br label %54

54:                                               ; preds = %53
  br label %55

55:                                               ; preds = %54
  %56 = load i64, ptr %2, align 8, !tbaa !4
  %57 = load ptr, ptr %3, align 8, !tbaa !11
  %58 = getelementptr inbounds nuw %struct.tr2tls_thread_ctx, ptr %57, i32 0, i32 1
  %59 = load ptr, ptr %58, align 8, !tbaa !19
  %60 = load ptr, ptr %3, align 8, !tbaa !11
  %61 = getelementptr inbounds nuw %struct.tr2tls_thread_ctx, ptr %60, i32 0, i32 3
  %62 = load i64, ptr %61, align 8, !tbaa !20
  %63 = add i64 %62, 1
  store i64 %63, ptr %61, align 8, !tbaa !20
  %64 = getelementptr inbounds nuw i64, ptr %59, i64 %62
  store i64 %56, ptr %64, align 8, !tbaa !4
  call void @llvm.lifetime.end.p0(i64 8, ptr %3) #8
  ret void
}