; Function Attrs: nounwind uwtable
define dso_local void @tr2tls_push_self(i64 noundef %0) local_unnamed_addr #0 {
  %2 = load i32, ptr @tr2tls_key, align 4, !tbaa !18
  %3 = tail call ptr @pthread_getspecific(i32 noundef %2) #11
  %.not.i = icmp eq ptr %3, null
  br i1 %.not.i, label %4, label %tr2tls_get_self.exit

4:                                                ; preds = %1
  %5 = tail call i64 @getnanotime() #11
  %6 = udiv i64 %5, 1000
  %7 = tail call ptr @tr2tls_create_self(ptr noundef nonnull @.str.1, i64 noundef %6)
  br label %tr2tls_get_self.exit

tr2tls_get_self.exit:                             ; preds = %1, %4
  %.0.i = phi ptr [ %3, %1 ], [ %7, %4 ]
  %8 = getelementptr inbounds nuw i8, ptr %.0.i, i64 24
  %9 = load i64, ptr %8, align 8, !tbaa !17
  %10 = add i64 %9, 1
  %11 = getelementptr inbounds nuw i8, ptr %.0.i, i64 16
  %12 = load i64, ptr %11, align 8, !tbaa !8
  %13 = icmp ugt i64 %10, %12
  br i1 %13, label %14, label %tr2tls_get_self.exit._crit_edge

tr2tls_get_self.exit._crit_edge:                  ; preds = %tr2tls_get_self.exit
  %.phi.trans.insert = getelementptr inbounds nuw i8, ptr %.0.i, i64 8
  %.pre = load ptr, ptr %.phi.trans.insert, align 8, !tbaa !16
  br label %24

14:                                               ; preds = %tr2tls_get_self.exit
  %15 = mul i64 %12, 3
  %16 = add i64 %15, 48
  %17 = lshr i64 %16, 1
  %. = tail call i64 @llvm.umax.i64(i64 %17, i64 %10)
  store i64 %., ptr %11, align 8, !tbaa !8
  %18 = icmp ugt i64 %., 2305843009213693951
  br i1 %18, label %19, label %st_mult.exit

19:                                               ; preds = %14
  tail call void (ptr, ...) @die(ptr noundef nonnull @.str.7, i64 noundef 8, i64 noundef %.) #13
  unreachable

st_mult.exit:                                     ; preds = %14
  %20 = getelementptr inbounds nuw i8, ptr %.0.i, i64 8
  %21 = load ptr, ptr %20, align 8, !tbaa !16
  %22 = shl nuw i64 %., 3
  %23 = tail call ptr @xrealloc(ptr noundef %21, i64 noundef %22) #11
  store ptr %23, ptr %20, align 8, !tbaa !16
  %.pre15 = load i64, ptr %8, align 8, !tbaa !17
  %.pre16 = add i64 %.pre15, 1
  br label %24

24:                                               ; preds = %tr2tls_get_self.exit._crit_edge, %st_mult.exit
  %.pre-phi = phi i64 [ %10, %tr2tls_get_self.exit._crit_edge ], [ %.pre16, %st_mult.exit ]
  %25 = phi i64 [ %9, %tr2tls_get_self.exit._crit_edge ], [ %.pre15, %st_mult.exit ]
  %26 = phi ptr [ %.pre, %tr2tls_get_self.exit._crit_edge ], [ %23, %st_mult.exit ]
  store i64 %.pre-phi, ptr %8, align 8, !tbaa !17
  %27 = getelementptr inbounds nuw i64, ptr %26, i64 %25
  store i64 %0, ptr %27, align 8, !tbaa !4
  ret void
}